target datalayout = "e-m:e-p270:32:32-p271:32:32-p272:64:64-i64:64-i128:128-f80:128-n8:16:32:64-S128"
target triple = "x86_64-pc-linux-gnu"

; Function Attrs: inlinehint nounwind uwtable
define internal i32 @If_CluWordNum(i32 noundef %0) #3 {
  %2 = alloca i32, align 4
  store i32 %0, ptr %2, align 4, !tbaa !3
  %3 = load i32, ptr %2, align 4, !tbaa !3
  %4 = icmp sle i32 %3, 6
  br i1 %4, label %5, label %6

5:                                                ; preds = %1
  br label %10

6:                                                ; preds = %1
  %7 = load i32, ptr %2, align 4, !tbaa !3
  %8 = sub nsw i32 %7, 6
  %9 = shl i32 1, %8
  br label %10

10:                                               ; preds = %6, %5
  %11 = phi i32 [ 1, %5 ], [ %9, %6 ]
  ret i32 %11
}

; Function Attrs: inlinehint nounwind uwtable
define internal void @If_CluSwapAdjacent(ptr noundef %0, ptr noundef %1, i32 noundef %2, i32 noundef %3) #3 {
  %5 = alloca ptr, align 8
  %6 = alloca ptr, align 8
  %7 = alloca i32, align 4
  %8 = alloca i32, align 4
  %9 = alloca i32, align 4
  %10 = alloca i32, align 4
  %11 = alloca i32, align 4
  %12 = alloca i32, align 4
  %13 = alloca i32, align 4
  store ptr %0, ptr %5, align 8, !tbaa !51
  store ptr %1, ptr %6, align 8, !tbaa !51
  store i32 %2, ptr %7, align 4, !tbaa !3
  store i32 %3, ptr %8, align 4, !tbaa !3
  call void @llvm.lifetime.start.p0(i64 4, ptr %9) #11
  call void @llvm.lifetime.start.p0(i64 4, ptr %10) #11
  call void @llvm.lifetime.start.p0(i64 4, ptr %11) #11
  %14 = load i32, ptr %8, align 4, !tbaa !3
  %15 = call i32 @If_CluWordNum(i32 noundef %14)
  store i32 %15, ptr %11, align 4, !tbaa !3
  %16 = load i32, ptr %7, align 4, !tbaa !3
  %17 = icmp slt i32 %16, 5
  br i1 %17, label %18, label %75

18:                                               ; preds = %4
  call void @llvm.lifetime.start.p0(i64 4, ptr %12) #11
  %19 = load i32, ptr %7, align 4, !tbaa !3
  %20 = shl i32 1, %19
  store i32 %20, ptr %12, align 4, !tbaa !3
  store i32 0, ptr %9, align 4, !tbaa !3
  br label %21

21:                                               ; preds = %71, %18
  %22 = load i32, ptr %9, align 4, !tbaa !3
  %23 = load i32, ptr %11, align 4, !tbaa !3
  %24 = icmp slt i32 %22, %23
  br i1 %24, label %25, label %74

25:                                               ; preds = %21
  %26 = load ptr, ptr %6, align 8, !tbaa !51
  %27 = load i32, ptr %9, align 4, !tbaa !3
  %28 = sext i32 %27 to i64
  %29 = getelementptr inbounds i64, ptr %26, i64 %28
  %30 = load i64, ptr %29, align 8, !tbaa !79
  %31 = load i32, ptr %7, align 4, !tbaa !3
  %32 = sext i32 %31 to i64
  %33 = getelementptr inbounds [5 x [3 x i64]], ptr @PMasks, i64 0, i64 %32
  %34 = getelementptr inbounds [3 x i64], ptr %33, i64 0, i64 0
  %35 = load i64, ptr %34, align 8, !tbaa !79
  %36 = and i64 %30, %35
  %37 = load ptr, ptr %6, align 8, !tbaa !51
  %38 = load i32, ptr %9, align 4, !tbaa !3
  %39 = sext i32 %38 to i64
  %40 = getelementptr inbounds i64, ptr %37, i64 %39
  %41 = load i64, ptr %40, align 8, !tbaa !79
  %42 = load i32, ptr %7, align 4, !tbaa !3
  %43 = sext i32 %42 to i64
  %44 = getelementptr inbounds [5 x [3 x i64]], ptr @PMasks, i64 0, i64 %43
  %45 = getelementptr inbounds [3 x i64], ptr %44, i64 0, i64 1
  %46 = load i64, ptr %45, align 8, !tbaa !79
  %47 = and i64 %41, %46
  %48 = load i32, ptr %12, align 4, !tbaa !3
  %49 = zext i32 %48 to i64
  %50 = shl i64 %47, %49
  %51 = or i64 %36, %50
  %52 = load ptr, ptr %6, align 8, !tbaa !51
  %53 = load i32, ptr %9, align 4, !tbaa !3
  %54 = sext i32 %53 to i64
  %55 = getelementptr inbounds i64, ptr %52, i64 %54
  %56 = load i64, ptr %55, align 8, !tbaa !79
  %57 = load i32, ptr %7, align 4, !tbaa !3
  %58 = sext i32 %57 to i64
  %59 = getelementptr inbounds [5 x [3 x i64]], ptr @PMasks, i64 0, i64 %58
  %60 = getelementptr inbounds [3 x i64], ptr %59, i64 0, i64 2
  %61 = load i64, ptr %60, align 8, !tbaa !79
  %62 = and i64 %56, %61
  %63 = load i32, ptr %12, align 4, !tbaa !3
  %64 = zext i32 %63 to i64
  %65 = lshr i64 %62, %64
  %66 = or i64 %51, %65
  %67 = load ptr, ptr %5, align 8, !tbaa !51
  %68 = load i32, ptr %9, align 4, !tbaa !3
  %69 = sext i32 %68 to i64
  %70 = getelementptr inbounds i64, ptr %67, i64 %69
  store i64 %66, ptr %70, align 8, !tbaa !79
  br label %71

71:                                               ; preds = %25
  %72 = load i32, ptr %9, align 4, !tbaa !3
  %73 = add nsw i32 %72, 1
  store i32 %73, ptr %9, align 4, !tbaa !3
  br label %21, !llvm.loop !94

74:                                               ; preds = %21
  call void @llvm.lifetime.end.p0(i64 4, ptr %12) #11
  br label %241

75:                                               ; preds = %4
  %76 = load i32, ptr %7, align 4, !tbaa !3
  %77 = icmp sgt i32 %76, 5
  br i1 %77, label %78, label %191

78:                                               ; preds = %75
  call void @llvm.lifetime.start.p0(i64 4, ptr %13) #11
  %79 = load i32, ptr %7, align 4, !tbaa !3
  %80 = sub nsw i32 %79, 6
  %81 = shl i32 1, %80
  store i32 %81, ptr %13, align 4, !tbaa !3
  store i32 0, ptr %10, align 4, !tbaa !3
  br label %82

82:                                               ; preds = %185, %78
  %83 = load i32, ptr %10, align 4, !tbaa !3
  %84 = load i32, ptr %11, align 4, !tbaa !3
  %85 = icmp slt i32 %83, %84
  br i1 %85, label %86, label %190

86:                                               ; preds = %82
  store i32 0, ptr %9, align 4, !tbaa !3
  br label %87

87:                                               ; preds = %101, %86
  %88 = load i32, ptr %9, align 4, !tbaa !3
  %89 = load i32, ptr %13, align 4, !tbaa !3
  %90 = icmp slt i32 %88, %89
  br i1 %90, label %91, label %104

91:                                               ; preds = %87
  %92 = load ptr, ptr %6, align 8, !tbaa !51
  %93 = load i32, ptr %9, align 4, !tbaa !3
  %94 = sext i32 %93 to i64
  %95 = getelementptr inbounds i64, ptr %92, i64 %94
  %96 = load i64, ptr %95, align 8, !tbaa !79
  %97 = load ptr, ptr %5, align 8, !tbaa !51
  %98 = load i32, ptr %9, align 4, !tbaa !3
  %99 = sext i32 %98 to i64
  %100 = getelementptr inbounds i64, ptr %97, i64 %99
  store i64 %96, ptr %100, align 8, !tbaa !79
  br label %101

101:                                              ; preds = %91
  %102 = load i32, ptr %9, align 4, !tbaa !3
  %103 = add nsw i32 %102, 1
  store i32 %103, ptr %9, align 4, !tbaa !3
  br label %87, !llvm.loop !95

104:                                              ; preds = %87
  store i32 0, ptr %9, align 4, !tbaa !3
  br label %105

105:                                              ; preds = %124, %104
  %106 = load i32, ptr %9, align 4, !tbaa !3
  %107 = load i32, ptr %13, align 4, !tbaa !3
  %108 = icmp slt i32 %106, %107
  br i1 %108, label %109, label %127

109:                                              ; preds = %105
  %110 = load ptr, ptr %6, align 8, !tbaa !51
  %111 = load i32, ptr %13, align 4, !tbaa !3
  %112 = mul nsw i32 2, %111
  %113 = load i32, ptr %9, align 4, !tbaa !3
  %114 = add nsw i32 %112, %113
  %115 = sext i32 %114 to i64
  %116 = getelementptr inbounds i64, ptr %110, i64 %115
  %117 = load i64, ptr %116, align 8, !tbaa !79
  %118 = load ptr, ptr %5, align 8, !tbaa !51
  %119 = load i32, ptr %13, align 4, !tbaa !3
  %120 = load i32, ptr %9, align 4, !tbaa !3
  %121 = add nsw i32 %119, %120
  %122 = sext i32 %121 to i64
  %123 = getelementptr inbounds i64, ptr %118, i64 %122
  store i64 %117, ptr %123, align 8, !tbaa !79
  br label %124

124:                                              ; preds = %109
  %125 = load i32, ptr %9, align 4, !tbaa !3
  %126 = add nsw i32 %125, 1
  store i32 %126, ptr %9, align 4, !tbaa !3
  br label %105, !llvm.loop !96

127:                                              ; preds = %105
  store i32 0, ptr %9, align 4, !tbaa !3
  br label %128

128:                                              ; preds = %147, %127
  %129 = load i32, ptr %9, align 4, !tbaa !3
  %130 = load i32, ptr %13, align 4, !tbaa !3
  %131 = icmp slt i32 %129, %130
  br i1 %131, label %132, label %150

132:                                              ; preds = %128
  %133 = load ptr, ptr %6, align 8, !tbaa !51
  %134 = load i32, ptr %13, align 4, !tbaa !3
  %135 = load i32, ptr %9, align 4, !tbaa !3
  %136 = add nsw i32 %134, %135
  %137 = sext i32 %136 to i64
  %138 = getelementptr inbounds i64, ptr %133, i64 %137
  %139 = load i64, ptr %138, align 8, !tbaa !79
  %140 = load ptr, ptr %5, align 8, !tbaa !51
  %141 = load i32, ptr %13, align 4, !tbaa !3
  %142 = mul nsw i32 2, %141
  %143 = load i32, ptr %9, align 4, !tbaa !3
  %144 = add nsw i32 %142, %143
  %145 = sext i32 %144 to i64
  %146 = getelementptr inbounds i64, ptr %140, i64 %145
  store i64 %139, ptr %146, align 8, !tbaa !79
  br label %147

147:                                              ; preds = %132
  %148 = load i32, ptr %9, align 4, !tbaa !3
  %149 = add nsw i32 %148, 1
  store i32 %149, ptr %9, align 4, !tbaa !3
  br label %128, !llvm.loop !97

150:                                              ; preds = %128
  store i32 0, ptr %9, align 4, !tbaa !3
  br label %151

151:                                              ; preds = %171, %150
  %152 = load i32, ptr %9, align 4, !tbaa !3
  %153 = load i32, ptr %13, align 4, !tbaa !3
  %154 = icmp slt i32 %152, %153
  br i1 %154, label %155, label %174

155:                                              ; preds = %151
  %156 = load ptr, ptr %6, align 8, !tbaa !51
  %157 = load i32, ptr %13, align 4, !tbaa !3
  %158 = mul nsw i32 3, %157
  %159 = load i32, ptr %9, align 4, !tbaa !3
  %160 = add nsw i32 %158, %159
  %161 = sext i32 %160 to i64
  %162 = getelementptr inbounds i64, ptr %156, i64 %161
  %163 = load i64, ptr %162, align 8, !tbaa !79
  %164 = load ptr, ptr %5, align 8, !tbaa !51
  %165 = load i32, ptr %13, align 4, !tbaa !3
  %166 = mul nsw i32 3, %165
  %167 = load i32, ptr %9, align 4, !tbaa !3
  %168 = add nsw i32 %166, %167
  %169 = sext i32 %168 to i64
  %170 = getelementptr inbounds i64, ptr %164, i64 %169
  store i64 %163, ptr %170, align 8, !tbaa !79
  br label %171

171:                                              ; preds = %155
  %172 = load i32, ptr %9, align 4, !tbaa !3
  %173 = add nsw i32 %172, 1
  store i32 %173, ptr %9, align 4, !tbaa !3
  br label %151, !llvm.loop !98

174:                                              ; preds = %151
  %175 = load i32, ptr %13, align 4, !tbaa !3
  %176 = mul nsw i32 4, %175
  %177 = load ptr, ptr %6, align 8, !tbaa !51
  %178 = sext i32 %176 to i64
  %179 = getelementptr inbounds i64, ptr %177, i64 %178
  store ptr %179, ptr %6, align 8, !tbaa !51
  %180 = load i32, ptr %13, align 4, !tbaa !3
  %181 = mul nsw i32 4, %180
  %182 = load ptr, ptr %5, align 8, !tbaa !51
  %183 = sext i32 %181 to i64
  %184 = getelementptr inbounds i64, ptr %182, i64 %183
  store ptr %184, ptr %5, align 8, !tbaa !51
  br label %185

185:                                              ; preds = %174
  %186 = load i32, ptr %13, align 4, !tbaa !3
  %187 = mul nsw i32 4, %186
  %188 = load i32, ptr %10, align 4, !tbaa !3
  %189 = add nsw i32 %188, %187
  store i32 %189, ptr %10, align 4, !tbaa !3
  br label %82, !llvm.loop !99

190:                                              ; preds = %82
  call void @llvm.lifetime.end.p0(i64 4, ptr %13) #11
  br label %240

191:                                              ; preds = %75
  store i32 0, ptr %9, align 4, !tbaa !3
  br label %192

192:                                              ; preds = %236, %191
  %193 = load i32, ptr %9, align 4, !tbaa !3
  %194 = load i32, ptr %11, align 4, !tbaa !3
  %195 = icmp slt i32 %193, %194
  br i1 %195, label %196, label %239

196:                                              ; preds = %192
  %197 = load ptr, ptr %6, align 8, !tbaa !51
  %198 = load i32, ptr %9, align 4, !tbaa !3
  %199 = sext i32 %198 to i64
  %200 = getelementptr inbounds i64, ptr %197, i64 %199
  %201 = load i64, ptr %200, align 8, !tbaa !79
  %202 = and i64 %201, 4294967295
  %203 = load ptr, ptr %6, align 8, !tbaa !51
  %204 = load i32, ptr %9, align 4, !tbaa !3
  %205 = add nsw i32 %204, 1
  %206 = sext i32 %205 to i64
  %207 = getelementptr inbounds i64, ptr %203, i64 %206
  %208 = load i64, ptr %207, align 8, !tbaa !79
  %209 = and i64 %208, 4294967295
  %210 = shl i64 %209, 32
  %211 = or i64 %202, %210
  %212 = load ptr, ptr %5, align 8, !tbaa !51
  %213 = load i32, ptr %9, align 4, !tbaa !3
  %214 = sext i32 %213 to i64
  %215 = getelementptr inbounds i64, ptr %212, i64 %214
  store i64 %211, ptr %215, align 8, !tbaa !79
  %216 = load ptr, ptr %6, align 8, !tbaa !51
  %217 = load i32, ptr %9, align 4, !tbaa !3
  %218 = add nsw i32 %217, 1
  %219 = sext i32 %218 to i64
  %220 = getelementptr inbounds i64, ptr %216, i64 %219
  %221 = load i64, ptr %220, align 8, !tbaa !79
  %222 = and i64 %221, -4294967296
  %223 = load ptr, ptr %6, align 8, !tbaa !51
  %224 = load i32, ptr %9, align 4, !tbaa !3
  %225 = sext i32 %224 to i64
  %226 = getelementptr inbounds i64, ptr %223, i64 %225
  %227 = load i64, ptr %226, align 8, !tbaa !79
  %228 = and i64 %227, -4294967296
  %229 = lshr i64 %228, 32
  %230 = or i64 %222, %229
  %231 = load ptr, ptr %5, align 8, !tbaa !51
  %232 = load i32, ptr %9, align 4, !tbaa !3
  %233 = add nsw i32 %232, 1
  %234 = sext i32 %233 to i64
  %235 = getelementptr inbounds i64, ptr %231, i64 %234
  store i64 %230, ptr %235, align 8, !tbaa !79
  br label %236

236:                                              ; preds = %196
  %237 = load i32, ptr %9, align 4, !tbaa !3
  %238 = add nsw i32 %237, 2
  store i32 %238, ptr %9, align 4, !tbaa !3
  br label %192, !llvm.loop !100

239:                                              ; preds = %192
  br label %240

240:                                              ; preds = %239, %190
  br label %241

241:                                              ; preds = %240, %74
  call void @llvm.lifetime.end.p0(i64 4, ptr %11) #11
  call void @llvm.lifetime.end.p0(i64 4, ptr %10) #11
  call void @llvm.lifetime.end.p0(i64 4, ptr %9) #11
  ret void
}