; Function Attrs: inlinehint nofree norecurse nosync nounwind memory(argmem: readwrite) uwtable
define internal fastcc void @If_CluSwapAdjacent(ptr noundef writeonly captures(none) %0, ptr noundef readonly captures(none) %1, i32 noundef %2, i32 noundef %3) unnamed_addr #12 {
  %5 = icmp slt i32 %3, 7
  %6 = add nsw i32 %3, -6
  %7 = shl nuw i32 1, %6
  %8 = select i1 %5, i32 1, i32 %7
  %9 = icmp slt i32 %2, 5
  br i1 %9, label %10, label %32

10:                                               ; preds = %4
  %11 = icmp sgt i32 %8, 0
  br i1 %11, label %.lr.ph135, label %.loopexit

.lr.ph135:                                        ; preds = %10
  %12 = shl nuw nsw i32 1, %2
  %13 = sext i32 %2 to i64
  %14 = getelementptr inbounds [5 x [3 x i64]], ptr @PMasks, i64 0, i64 %13
  %15 = load i64, ptr %14, align 8, !tbaa !16
  %16 = getelementptr inbounds nuw i8, ptr %14, i64 8
  %17 = load i64, ptr %16, align 8, !tbaa !16
  %18 = zext nneg i32 %12 to i64
  %19 = getelementptr inbounds nuw i8, ptr %14, i64 16
  %20 = load i64, ptr %19, align 8, !tbaa !16
  %wide.trip.count170 = zext nneg i32 %8 to i64
  br label %21

21:                                               ; preds = %.lr.ph135, %21
  %indvars.iv167 = phi i64 [ 0, %.lr.ph135 ], [ %indvars.iv.next168, %21 ]
  %22 = getelementptr inbounds nuw i64, ptr %1, i64 %indvars.iv167
  %23 = load i64, ptr %22, align 8, !tbaa !16
  %24 = and i64 %15, %23
  %25 = and i64 %17, %23
  %26 = shl i64 %25, %18
  %27 = or i64 %26, %24
  %28 = and i64 %20, %23
  %29 = lshr i64 %28, %18
  %30 = or i64 %27, %29
  %31 = getelementptr inbounds nuw i64, ptr %0, i64 %indvars.iv167
  store i64 %30, ptr %31, align 8, !tbaa !16
  %indvars.iv.next168 = add nuw nsw i64 %indvars.iv167, 1
  %exitcond171.not = icmp eq i64 %indvars.iv.next168, %wide.trip.count170
  br i1 %exitcond171.not, label %.loopexit, label %21, !llvm.loop !102

32:                                               ; preds = %4
  %.not = icmp eq i32 %2, 5
  br i1 %.not, label %.preheader, label %35

.preheader:                                       ; preds = %32
  %33 = icmp sgt i32 %8, 0
  br i1 %33, label %.lr.ph.preheader, label %.loopexit

.lr.ph.preheader:                                 ; preds = %.preheader
  %34 = zext nneg i32 %8 to i64
  br label %.lr.ph

35:                                               ; preds = %32
  %36 = add nsw i32 %2, -6
  %37 = shl nuw i32 1, %36
  %38 = icmp sgt i32 %8, 0
  br i1 %38, label %.preheader87.lr.ph, label %.loopexit

.preheader87.lr.ph:                               ; preds = %35
  %.not136 = icmp eq i32 %36, 31
  %39 = shl i32 4, %36
  %40 = sext i32 %39 to i64
  br i1 %.not136, label %.loopexit, label %.preheader87.us.preheader

.preheader87.us.preheader:                        ; preds = %.preheader87.lr.ph
  %41 = shl i32 3, %36
  %42 = shl i32 2, %36
  %smax = tail call i32 @llvm.smax.i32(i32 %37, i32 1)
  %43 = sext i32 %42 to i64
  %44 = sext i32 %37 to i64
  %45 = sext i32 %41 to i64
  %wide.trip.count = zext nneg i32 %smax to i64
  %wide.trip.count149 = zext nneg i32 %smax to i64
  br label %.lr.ph.us.preheader

.lr.ph.us.preheader:                              ; preds = %._crit_edge.us, %.preheader87.us.preheader
  %.098.us = phi ptr [ %47, %._crit_edge.us ], [ %0, %.preheader87.us.preheader ]
  %.07797.us = phi ptr [ %46, %._crit_edge.us ], [ %1, %.preheader87.us.preheader ]
  %.07996.us = phi i32 [ %48, %._crit_edge.us ], [ 0, %.preheader87.us.preheader ]
  br label %.lr.ph.us

._crit_edge.us:                                   ; preds = %.lr.ph95.us
  %46 = getelementptr inbounds i64, ptr %.07797.us, i64 %40
  %47 = getelementptr inbounds i64, ptr %.098.us, i64 %40
  %48 = add nsw i32 %.07996.us, %39
  %49 = icmp slt i32 %48, %8
  br i1 %49, label %.lr.ph.us.preheader, label %.loopexit, !llvm.loop !100

.lr.ph95.us:                                      ; preds = %54, %.lr.ph95.us
  %indvars.iv159 = phi i64 [ %indvars.iv.next160, %.lr.ph95.us ], [ 0, %54 ]
  %50 = add nsw i64 %indvars.iv159, %45
  %51 = getelementptr inbounds i64, ptr %.07797.us, i64 %50
  %52 = load i64, ptr %51, align 8, !tbaa !16
  %53 = getelementptr inbounds i64, ptr %.098.us, i64 %50
  store i64 %52, ptr %53, align 8, !tbaa !16
  %indvars.iv.next160 = add nuw nsw i64 %indvars.iv159, 1
  %exitcond163.not = icmp eq i64 %indvars.iv.next160, %wide.trip.count149
  br i1 %exitcond163.not, label %._crit_edge.us, label %.lr.ph95.us, !llvm.loop !99

54:                                               ; preds = %.preheader85.us, %54
  %indvars.iv152 = phi i64 [ 0, %.preheader85.us ], [ %indvars.iv.next153, %54 ]
  %gep177 = getelementptr i64, ptr %invariant.gep176, i64 %indvars.iv152
  %55 = load i64, ptr %gep177, align 8, !tbaa !16
  %gep179 = getelementptr i64, ptr %invariant.gep178, i64 %indvars.iv152
  store i64 %55, ptr %gep179, align 8, !tbaa !16
  %indvars.iv.next153 = add nuw nsw i64 %indvars.iv152, 1
  %exitcond157.not = icmp eq i64 %indvars.iv.next153, %wide.trip.count149
  br i1 %exitcond157.not, label %.lr.ph95.us, label %54, !llvm.loop !98

.lr.ph91.us:                                      ; preds = %.lr.ph91.us.preheader, %.lr.ph91.us
  %indvars.iv145 = phi i64 [ 0, %.lr.ph91.us.preheader ], [ %indvars.iv.next146, %.lr.ph91.us ]
  %gep = getelementptr i64, ptr %invariant.gep, i64 %indvars.iv145
  %56 = load i64, ptr %gep, align 8, !tbaa !16
  %gep175 = getelementptr i64, ptr %invariant.gep174, i64 %indvars.iv145
  store i64 %56, ptr %gep175, align 8, !tbaa !16
  %indvars.iv.next146 = add nuw nsw i64 %indvars.iv145, 1
  %exitcond150.not = icmp eq i64 %indvars.iv.next146, %wide.trip.count149
  br i1 %exitcond150.not, label %.preheader85.us, label %.lr.ph91.us, !llvm.loop !97

.lr.ph.us:                                        ; preds = %.lr.ph.us.preheader, %.lr.ph.us
  %indvars.iv = phi i64 [ 0, %.lr.ph.us.preheader ], [ %indvars.iv.next, %.lr.ph.us ]
  %57 = getelementptr inbounds nuw i64, ptr %.07797.us, i64 %indvars.iv
  %58 = load i64, ptr %57, align 8, !tbaa !16
  %59 = getelementptr inbounds nuw i64, ptr %.098.us, i64 %indvars.iv
  store i64 %58, ptr %59, align 8, !tbaa !16
  %indvars.iv.next = add nuw nsw i64 %indvars.iv, 1
  %exitcond.not = icmp eq i64 %indvars.iv.next, %wide.trip.count
  br i1 %exitcond.not, label %.lr.ph91.us.preheader, label %.lr.ph.us, !llvm.loop !105

.preheader85.us:                                  ; preds = %.lr.ph91.us
  %invariant.gep176 = getelementptr i64, ptr %.07797.us, i64 %44
  %invariant.gep178 = getelementptr i64, ptr %.098.us, i64 %43
  br label %54

.lr.ph91.us.preheader:                            ; preds = %.lr.ph.us
  %invariant.gep = getelementptr i64, ptr %.07797.us, i64 %43
  %invariant.gep174 = getelementptr i64, ptr %.098.us, i64 %44
  br label %.lr.ph91.us

.lr.ph:                                           ; preds = %.lr.ph.preheader, %.lr.ph
  %indvars.iv164 = phi i64 [ 0, %.lr.ph.preheader ], [ %indvars.iv.next165, %.lr.ph ]
  %60 = getelementptr inbounds nuw i64, ptr %1, i64 %indvars.iv164
  %61 = load i64, ptr %60, align 8, !tbaa !16
  %62 = and i64 %61, 4294967295
  %63 = or disjoint i64 %indvars.iv164, 1
  %64 = getelementptr inbounds nuw i64, ptr %1, i64 %63
  %65 = load i64, ptr %64, align 8, !tbaa !16
  %66 = shl i64 %65, 32
  %67 = or disjoint i64 %66, %62
  %68 = getelementptr inbounds nuw i64, ptr %0, i64 %indvars.iv164
  store i64 %67, ptr %68, align 8, !tbaa !16
  %69 = load i64, ptr %64, align 8, !tbaa !16
  %70 = and i64 %69, -4294967296
  %71 = load i64, ptr %60, align 8, !tbaa !16
  %72 = lshr i64 %71, 32
  %73 = or disjoint i64 %72, %70
  %74 = getelementptr inbounds nuw i64, ptr %0, i64 %63
  store i64 %73, ptr %74, align 8, !tbaa !16
  %indvars.iv.next165 = add nuw nsw i64 %indvars.iv164, 2
  %75 = icmp samesign ult i64 %indvars.iv.next165, %34
  br i1 %75, label %.lr.ph, label %.loopexit, !llvm.loop !101

.loopexit:                                        ; preds = %._crit_edge.us, %.lr.ph, %21, %.preheader87.lr.ph, %35, %.preheader, %10
  ret void
}